target datalayout = "e-m:e-p270:32:32-p271:32:32-p272:64:64-i64:64-i128:128-f80:128-n8:16:32:64-S128"
target triple = "x86_64-pc-linux-gnu"

%struct.nghttp2_frame_hd = type { i64, i32, i8, i8, i8 }
%struct.nghttp2_extension = type { %struct.nghttp2_frame_hd, ptr }
%struct.nghttp2_ext_priority_update = type { i32, ptr, i64 }

; Function Attrs: nounwind uwtable
define hidden void @nghttp2_frame_hd_init(ptr noundef %0, i64 noundef %1, i8 noundef zeroext %2, i8 noundef zeroext %3, i32 noundef %4) #0 {
  %6 = alloca ptr, align 8
  %7 = alloca i64, align 8
  %8 = alloca i8, align 1
  %9 = alloca i8, align 1
  %10 = alloca i32, align 4
  store ptr %0, ptr %6, align 8, !tbaa !8
  store i64 %1, ptr %7, align 8, !tbaa !18
  store i8 %2, ptr %8, align 1, !tbaa !14
  store i8 %3, ptr %9, align 1, !tbaa !14
  store i32 %4, ptr %10, align 4, !tbaa !19
  %11 = load i64, ptr %7, align 8, !tbaa !18
  %12 = load ptr, ptr %6, align 8, !tbaa !8
  %13 = getelementptr inbounds nuw %struct.nghttp2_frame_hd, ptr %12, i32 0, i32 0
  store i64 %11, ptr %13, align 8, !tbaa !9
  %14 = load i8, ptr %8, align 1, !tbaa !14
  %15 = load ptr, ptr %6, align 8, !tbaa !8
  %16 = getelementptr inbounds nuw %struct.nghttp2_frame_hd, ptr %15, i32 0, i32 2
  store i8 %14, ptr %16, align 4, !tbaa !13
  %17 = load i8, ptr %9, align 1, !tbaa !14
  %18 = load ptr, ptr %6, align 8, !tbaa !8
  %19 = getelementptr inbounds nuw %struct.nghttp2_frame_hd, ptr %18, i32 0, i32 3
  store i8 %17, ptr %19, align 1, !tbaa !15
  %20 = load i32, ptr %10, align 4, !tbaa !19
  %21 = load ptr, ptr %6, align 8, !tbaa !8
  %22 = getelementptr inbounds nuw %struct.nghttp2_frame_hd, ptr %21, i32 0, i32 1
  store i32 %20, ptr %22, align 8, !tbaa !16
  %23 = load ptr, ptr %6, align 8, !tbaa !8
  %24 = getelementptr inbounds nuw %struct.nghttp2_frame_hd, ptr %23, i32 0, i32 4
  store i8 0, ptr %24, align 2, !tbaa !17
  ret void
}

; Function Attrs: nounwind uwtable
define hidden void @nghttp2_frame_priority_update_init(ptr noundef %0, i32 noundef %1, ptr noundef %2, i64 noundef %3) #0 {
  %5 = alloca ptr, align 8
  %6 = alloca i32, align 4
  %7 = alloca ptr, align 8
  %8 = alloca i64, align 8
  %9 = alloca ptr, align 8
  store ptr %0, ptr %5, align 8, !tbaa !8
  store i32 %1, ptr %6, align 4, !tbaa !19
  store ptr %2, ptr %7, align 8, !tbaa !3
  store i64 %3, ptr %8, align 8, !tbaa !18
  call void @llvm.lifetime.start.p0(i64 8, ptr %9) #7
  %10 = load ptr, ptr %5, align 8, !tbaa !8
  %11 = getelementptr inbounds nuw %struct.nghttp2_extension, ptr %10, i32 0, i32 0
  %12 = load i64, ptr %8, align 8, !tbaa !18
  %13 = add i64 4, %12
  call void @nghttp2_frame_hd_init(ptr noundef %11, i64 noundef %13, i8 noundef zeroext 16, i8 noundef zeroext 0, i32 noundef 0)
  %14 = load ptr, ptr %5, align 8, !tbaa !8
  %15 = getelementptr inbounds nuw %struct.nghttp2_extension, ptr %14, i32 0, i32 1
  %16 = load ptr, ptr %15, align 8, !tbaa !49
  store ptr %16, ptr %9, align 8, !tbaa !8
  %17 = load i32, ptr %6, align 4, !tbaa !19
  %18 = load ptr, ptr %9, align 8, !tbaa !8
  %19 = getelementptr inbounds nuw %struct.nghttp2_ext_priority_update, ptr %18, i32 0, i32 0
  store i32 %17, ptr %19, align 8, !tbaa !63
  %20 = load ptr, ptr %7, align 8, !tbaa !3
  %21 = load ptr, ptr %9, align 8, !tbaa !8
  %22 = getelementptr inbounds nuw %struct.nghttp2_ext_priority_update, ptr %21, i32 0, i32 1
  store ptr %20, ptr %22, align 8, !tbaa !65
  %23 = load i64, ptr %8, align 8, !tbaa !18
  %24 = load ptr, ptr %9, align 8, !tbaa !8
  %25 = getelementptr inbounds nuw %struct.nghttp2_ext_priority_update, ptr %24, i32 0, i32 2
  store i64 %23, ptr %25, align 8, !tbaa !66
  call void @llvm.lifetime.end.p0(i64 8, ptr %9) #7
  ret void
}