; Function Attrs: mustprogress nofree norecurse nosync nounwind willreturn memory(write, argmem: readwrite, inaccessiblemem: none) uwtable
define hidden void @nghttp2_frame_priority_update_init(ptr noundef captures(none) initializes((0, 15)) %0, i32 noundef %1, ptr noundef %2, i64 noundef %3) local_unnamed_addr #8 {
  %5 = add i64 %3, 4
  store i64 %5, ptr %0, align 8, !tbaa !3
  %6 = getelementptr inbounds nuw i8, ptr %0, i64 12
  store i8 16, ptr %6, align 4, !tbaa !9
  %7 = getelementptr inbounds nuw i8, ptr %0, i64 13
  store i8 0, ptr %7, align 1, !tbaa !11
  %8 = getelementptr inbounds nuw i8, ptr %0, i64 8
  store i32 0, ptr %8, align 8, !tbaa !12
  %9 = getelementptr inbounds nuw i8, ptr %0, i64 14
  store i8 0, ptr %9, align 2, !tbaa !13
  %10 = getelementptr inbounds nuw i8, ptr %0, i64 16
  %11 = load ptr, ptr %10, align 8, !tbaa !46
  store i32 %1, ptr %11, align 8, !tbaa !60
  %12 = getelementptr inbounds nuw i8, ptr %11, i64 8
  store ptr %2, ptr %12, align 8, !tbaa !62
  %13 = getelementptr inbounds nuw i8, ptr %11, i64 16
  store i64 %3, ptr %13, align 8, !tbaa !63
  ret void
}